target datalayout = "e-m:e-p270:32:32-p271:32:32-p272:64:64-i64:64-i128:128-f80:128-n8:16:32:64-S128"
target triple = "x86_64-pc-linux-gnu"

%"class.icu_77::MessagePattern" = type <{ %"class.icu_77::UObject", i32, [4 x i8], %"class.icu_77::UnicodeString", ptr, ptr, i32, [4 x i8], ptr, ptr, i32, i8, i8, i8, i8 }>
%"class.icu_77::UObject" = type { ptr }
%"class.icu_77::UnicodeString" = type { %"class.icu_77::Replaceable", %"union.icu_77::UnicodeString::StackBufferOrFields" }
%"class.icu_77::Replaceable" = type { %"class.icu_77::UObject" }
%"union.icu_77::UnicodeString::StackBufferOrFields" = type { %struct.anon.0, [32 x i8] }
%struct.anon.0 = type { i16, i32, i32, ptr }
%"class.icu_77::MessagePattern::Part" = type { i32, i32, i16, i16, i32 }

; Function Attrs: mustprogress nounwind uwtable
define linkonce_odr noundef i32 @_ZNK6icu_7714MessagePattern4Part8hashCodeEv(ptr noundef nonnull align 4 dereferenceable(16) %0) #5 comdat align 2 {
  %2 = alloca ptr, align 8
  store ptr %0, ptr %2, align 8, !tbaa !70
  %3 = load ptr, ptr %2, align 8
  %4 = getelementptr inbounds nuw %"class.icu_77::MessagePattern::Part", ptr %3, i32 0, i32 0
  %5 = load i32, ptr %4, align 4, !tbaa !71
  %6 = mul nsw i32 %5, 37
  %7 = getelementptr inbounds nuw %"class.icu_77::MessagePattern::Part", ptr %3, i32 0, i32 1
  %8 = load i32, ptr %7, align 4, !tbaa !75
  %9 = add nsw i32 %6, %8
  %10 = mul nsw i32 %9, 37
  %11 = getelementptr inbounds nuw %"class.icu_77::MessagePattern::Part", ptr %3, i32 0, i32 2
  %12 = load i16, ptr %11, align 4, !tbaa !76
  %13 = zext i16 %12 to i32
  %14 = add nsw i32 %10, %13
  %15 = mul nsw i32 %14, 37
  %16 = getelementptr inbounds nuw %"class.icu_77::MessagePattern::Part", ptr %3, i32 0, i32 3
  %17 = load i16, ptr %16, align 2, !tbaa !77
  %18 = sext i16 %17 to i32
  %19 = add nsw i32 %15, %18
  ret i32 %19
}

; Function Attrs: inlinehint mustprogress uwtable
define linkonce_odr noundef i32 @_ZNK6icu_7713UnicodeString8hashCodeEv(ptr noundef nonnull align 8 dereferenceable(64) %0) #2 comdat align 2 {
  %2 = alloca ptr, align 8
  store ptr %0, ptr %2, align 8, !tbaa !33
  %3 = load ptr, ptr %2, align 8
  %4 = call noundef i32 @_ZNK6icu_7713UnicodeString10doHashCodeEv(ptr noundef nonnull align 8 dereferenceable(64) %3)
  ret i32 %4
}

; Function Attrs: mustprogress uwtable
define noundef i32 @_ZNK6icu_7714MessagePattern8hashCodeEv(ptr noundef nonnull align 8 dereferenceable(127) %0) #0 align 2 {
  %2 = alloca ptr, align 8
  %3 = alloca i32, align 4
  %4 = alloca i32, align 4
  store ptr %0, ptr %2, align 8, !tbaa !3
  %5 = load ptr, ptr %2, align 8
  call void @llvm.lifetime.start.p0(i64 4, ptr %3) #12
  %6 = getelementptr inbounds nuw %"class.icu_77::MessagePattern", ptr %5, i32 0, i32 1
  %7 = load i32, ptr %6, align 8, !tbaa !11
  %8 = mul nsw i32 %7, 37
  %9 = getelementptr inbounds nuw %"class.icu_77::MessagePattern", ptr %5, i32 0, i32 3
  %10 = call noundef i32 @_ZNK6icu_7713UnicodeString8hashCodeEv(ptr noundef nonnull align 8 dereferenceable(64) %9)
  %11 = add nsw i32 %8, %10
  %12 = mul nsw i32 %11, 37
  %13 = getelementptr inbounds nuw %"class.icu_77::MessagePattern", ptr %5, i32 0, i32 6
  %14 = load i32, ptr %13, align 8, !tbaa !24
  %15 = add nsw i32 %12, %14
  store i32 %15, ptr %3, align 4, !tbaa !48
  call void @llvm.lifetime.start.p0(i64 4, ptr %4) #12
  store i32 0, ptr %4, align 4, !tbaa !48
  br label %16

16:                                               ; preds = %32, %1
  %17 = load i32, ptr %4, align 4, !tbaa !48
  %18 = getelementptr inbounds nuw %"class.icu_77::MessagePattern", ptr %5, i32 0, i32 6
  %19 = load i32, ptr %18, align 8, !tbaa !24
  %20 = icmp slt i32 %17, %19
  br i1 %20, label %22, label %21

21:                                               ; preds = %16
  call void @llvm.lifetime.end.p0(i64 4, ptr %4) #12
  br label %35

22:                                               ; preds = %16
  %23 = load i32, ptr %3, align 4, !tbaa !48
  %24 = mul nsw i32 %23, 37
  %25 = getelementptr inbounds nuw %"class.icu_77::MessagePattern", ptr %5, i32 0, i32 5
  %26 = load ptr, ptr %25, align 8, !tbaa !23
  %27 = load i32, ptr %4, align 4, !tbaa !48
  %28 = sext i32 %27 to i64
  %29 = getelementptr inbounds %"class.icu_77::MessagePattern::Part", ptr %26, i64 %28
  %30 = call noundef i32 @_ZNK6icu_7714MessagePattern4Part8hashCodeEv(ptr noundef nonnull align 4 dereferenceable(16) %29)
  %31 = add nsw i32 %24, %30
  store i32 %31, ptr %3, align 4, !tbaa !48
  br label %32

32:                                               ; preds = %22
  %33 = load i32, ptr %4, align 4, !tbaa !48
  %34 = add nsw i32 %33, 1
  store i32 %34, ptr %4, align 4, !tbaa !48
  br label %16, !llvm.loop !69

35:                                               ; preds = %21
  %36 = load i32, ptr %3, align 4, !tbaa !48
  call void @llvm.lifetime.end.p0(i64 4, ptr %3) #12
  ret i32 %36
}