; Function Attrs: mustprogress uwtable
define noundef i32 @_ZNK6icu_7714MessagePattern8hashCodeEv(ptr noundef nonnull align 8 dereferenceable(127) %0) local_unnamed_addr #2 align 2 {
  %2 = getelementptr inbounds nuw i8, ptr %0, i64 8
  %3 = load i32, ptr %2, align 8, !tbaa !6
  %4 = mul nsw i32 %3, 37
  %5 = getelementptr inbounds nuw i8, ptr %0, i64 16
  %6 = tail call noundef i32 @_ZNK6icu_7713UnicodeString10doHashCodeEv(ptr noundef nonnull align 8 dereferenceable(64) %5)
  %7 = add nsw i32 %4, %6
  %8 = mul nsw i32 %7, 37
  %9 = getelementptr inbounds nuw i8, ptr %0, i64 96
  %10 = load i32, ptr %9, align 8, !tbaa !32
  %11 = add nsw i32 %8, %10
  %12 = icmp sgt i32 %10, 0
  br i1 %12, label %.lr.ph, label %._crit_edge

.lr.ph:                                           ; preds = %1
  %13 = getelementptr inbounds nuw i8, ptr %0, i64 88
  %14 = load ptr, ptr %13, align 8, !tbaa !26
  %wide.trip.count = zext nneg i32 %10 to i64
  br label %15

._crit_edge:                                      ; preds = %15, %1
  %.05.lcssa = phi i32 [ %11, %1 ], [ %30, %15 ]
  ret i32 %.05.lcssa

15:                                               ; preds = %.lr.ph, %15
  %indvars.iv = phi i64 [ 0, %.lr.ph ], [ %indvars.iv.next, %15 ]
  %.056 = phi i32 [ %11, %.lr.ph ], [ %30, %15 ]
  %16 = getelementptr inbounds nuw %"class.icu_77::MessagePattern::Part", ptr %14, i64 %indvars.iv
  %17 = load i32, ptr %16, align 4, !tbaa !44
  %18 = mul nsw i32 %17, 37
  %19 = getelementptr inbounds nuw i8, ptr %16, i64 4
  %20 = load i32, ptr %19, align 4, !tbaa !48
  %21 = add nsw i32 %18, %20
  %22 = mul nsw i32 %21, 37
  %23 = getelementptr inbounds nuw i8, ptr %16, i64 8
  %24 = load i16, ptr %23, align 4, !tbaa !49
  %25 = zext i16 %24 to i32
  %26 = getelementptr inbounds nuw i8, ptr %16, i64 10
  %27 = load i16, ptr %26, align 2, !tbaa !50
  %28 = sext i16 %27 to i32
  %29 = add i32 %.056, %25
  %reass.add = add i32 %29, %22
  %reass.mul = mul i32 %reass.add, 37
  %30 = add i32 %reass.mul, %28
  %indvars.iv.next = add nuw nsw i64 %indvars.iv, 1
  %exitcond.not = icmp eq i64 %indvars.iv.next, %wide.trip.count
  br i1 %exitcond.not, label %._crit_edge, label %15, !llvm.loop !59
}